; Function Attrs: nounwind sspstrong uwtable
define dso_local i64 @rb_io_buffer_new(ptr noundef %0, i64 noundef %1, i32 noundef %2) local_unnamed_addr #0 {
  %4 = load i64, ptr @rb_cIOBuffer, align 8, !tbaa !22
  %5 = tail call i64 @rb_data_typed_object_zalloc(i64 noundef %4, i64 noundef 32, ptr noundef nonnull @rb_io_buffer_type) #25
  %6 = inttoptr i64 %5 to ptr
  %7 = getelementptr inbounds nuw i8, ptr %6, i64 24
  %8 = load i64, ptr %7, align 8, !tbaa !17
  %9 = and i64 %8, 2
  %.not.i.i = icmp eq i64 %9, 0
  %10 = getelementptr i8, ptr %6, i64 32
  br i1 %.not.i.i, label %11, label %rb_io_buffer_type_allocate.exit

11:                                               ; preds = %3
  %12 = load ptr, ptr %10, align 8, !tbaa !21
  br label %rb_io_buffer_type_allocate.exit

rb_io_buffer_type_allocate.exit:                  ; preds = %3, %11
  %13 = phi ptr [ %12, %11 ], [ %10, %3 ]
  %14 = getelementptr inbounds nuw i8, ptr %13, i64 24
  tail call void @llvm.memset.p0.i64(ptr noundef nonnull align 8 dereferenceable(16) %13, i8 0, i64 16, i1 false)
  store i64 4, ptr %14, align 8, !tbaa !7
  %15 = tail call ptr @rb_check_typeddata(i64 noundef %5, ptr noundef nonnull @rb_io_buffer_type) #25
  tail call fastcc void @io_buffer_initialize(i64 noundef %5, ptr noundef %15, ptr noundef %0, i64 noundef %1, i32 noundef %2, i64 noundef 4)
  ret i64 %5
}